; Function Attrs: mustprogress nofree norecurse nosync nounwind willreturn memory(read, inaccessiblemem: none) uwtable
define dso_local noundef zeroext i1 @_ZNK4llvm6object14WasmObjectFile16isValidTagSymbolEj(ptr nocapture noundef nonnull readonly align 8 dereferenceable(684) %0, i32 noundef %1) local_unnamed_addr #5 align 2 {
  %3 = zext i32 %1 to i64
  %4 = getelementptr inbounds nuw i8, ptr %0, i64 536
  %5 = getelementptr inbounds i8, ptr %0, i64 544
  %6 = load ptr, ptr %5, align 8
  %7 = load ptr, ptr %4, align 8
  %8 = ptrtoint ptr %6 to i64
  %9 = ptrtoint ptr %7 to i64
  %10 = sub i64 %8, %9
  %11 = sdiv exact i64 %10, 144
  %12 = icmp ugt i64 %11, %3
  br i1 %12, label %13, label %17

13:                                               ; preds = %2
  %14 = getelementptr inbounds %"class.llvm::object::WasmSymbol", ptr %7, i64 %3, i32 0, i32 1
  %15 = load i8, ptr %14, align 8
  %16 = icmp eq i8 %15, 4
  br label %17

17:                                               ; preds = %13, %2
  %18 = phi i1 [ false, %2 ], [ %16, %13 ]
  ret i1 %18
}